; Function Attrs: mustprogress nofree norecurse nosync nounwind willreturn memory(read, inaccessiblemem: none) uwtable
define noundef i32 @_ZNK3re23RE211ProgramSizeEv(ptr noundef nonnull readonly align 8 captures(none) dereferenceable(148) %this) local_unnamed_addr #11 align 2 {
entry:
  %prog_ = getelementptr inbounds nuw i8, ptr %this, i64 104
  %0 = load ptr, ptr %prog_, align 8
  %cmp = icmp eq ptr %0, null
  br i1 %cmp, label %return, label %if.end

if.end:                                           ; preds = %entry
  %size_.i = getelementptr inbounds nuw i8, ptr %0, i64 16
  %1 = load i32, ptr %size_.i, align 8
  br label %return

return:                                           ; preds = %entry, %if.end
  %retval.0 = phi i32 [ %1, %if.end ], [ -1, %entry ]
  ret i32 %retval.0
}